target datalayout = "e-m:e-p270:32:32-p271:32:32-p272:64:64-i64:64-i128:128-f80:128-n8:16:32:64-S128"
target triple = "x86_64-pc-linux-gnu"

%struct._psqlSettings = type { ptr, i32, ptr, i8, ptr, ptr, %struct.printQueryOpt, ptr, ptr, ptr, i8, i8, i32, i32, ptr, ptr, i8, [4 x ptr], i8, i32, ptr, i8, i32, ptr, ptr, i64, i64, i8, ptr, ptr, ptr, i8, i8, i8, i8, i8, i8, i8, i32, i32, i32, i32, i32, i32, i32, i32, ptr, ptr, ptr, i32, i8, i32 }
%struct.printQueryOpt = type { %struct.printTableOpt, ptr, ptr, ptr, i8, ptr, i32 }
%struct.printTableOpt = type { i32, i16, i32, i32, i16, i16, i32, i8, i8, i8, i8, i64, ptr, %struct.separator, %struct.separator, [2 x i8], i8, ptr, i32, i32, i32, i32, i32, i32 }
%struct.separator = type { ptr, i8 }
%struct.PQExpBufferData = type { ptr, i64, i64 }

@pset = external global %struct._psqlSettings, align 8
@.str.1 = private unnamed_addr constant [7 x i8] c"Schema\00", align 1
@.str.2 = private unnamed_addr constant [5 x i8] c"Name\00", align 1
@.str.6 = private unnamed_addr constant [12 x i8] c"Description\00", align 1
@.str.8 = private unnamed_addr constant [81 x i8] c"      AND n.nspname <> 'pg_catalog'\0A      AND n.nspname <> 'information_schema'\0A\00", align 1
@.str.9 = private unnamed_addr constant [10 x i8] c"n.nspname\00", align 1
@.str.46 = private unnamed_addr constant [8 x i8] c"trigger\00", align 1
@.str.110 = private unnamed_addr constant [37 x i8] c"pg_catalog.pg_type_is_visible(t.oid)\00", align 1
@.str.123 = private unnamed_addr constant [77 x i8] c"WHERE n.nspname <> 'pg_catalog'\0A      AND n.nspname <> 'information_schema'\0A\00", align 1
@.str.166 = private unnamed_addr constant [38 x i8] c"pg_catalog.pg_table_is_visible(c.oid)\00", align 1
@.str.175 = private unnamed_addr constant [18 x i8] c"ORDER BY 1, 2, 3;\00", align 1
@objectDescription.translate_columns = internal constant [4 x i8] c"\00\00\01\00", align 1
@.str.177 = private unnamed_addr constant [102 x i8] c"SELECT DISTINCT tt.nspname AS \22%s\22, tt.name AS \22%s\22, tt.object AS \22%s\22, d.description AS \22%s\22\0AFROM (\0A\00", align 1
@.str.178 = private unnamed_addr constant [7 x i8] c"Object\00", align 1
@.str.180 = private unnamed_addr constant [17 x i8] c"table constraint\00", align 1
@.str.181 = private unnamed_addr constant [12 x i8] c"pgc.conname\00", align 1
@.str.183 = private unnamed_addr constant [18 x i8] c"domain constraint\00", align 1
@.str.185 = private unnamed_addr constant [15 x i8] c"operator class\00", align 1
@.str.186 = private unnamed_addr constant [10 x i8] c"o.opcname\00", align 1
@.str.187 = private unnamed_addr constant [40 x i8] c"pg_catalog.pg_opclass_is_visible(o.oid)\00", align 1
@.str.189 = private unnamed_addr constant [16 x i8] c"operator family\00", align 1
@.str.190 = private unnamed_addr constant [12 x i8] c"opf.opfname\00", align 1
@.str.191 = private unnamed_addr constant [43 x i8] c"pg_catalog.pg_opfamily_is_visible(opf.oid)\00", align 1
@.str.193 = private unnamed_addr constant [5 x i8] c"rule\00", align 1
@.str.194 = private unnamed_addr constant [11 x i8] c"r.rulename\00", align 1
@.str.196 = private unnamed_addr constant [9 x i8] c"t.tgname\00", align 1
@.str.197 = private unnamed_addr constant [115 x i8] c") AS tt\0A  JOIN pg_catalog.pg_description d ON (tt.oid = d.objoid AND tt.tableoid = d.classoid AND d.objsubid = 0)\0A\00", align 1
@.str.198 = private unnamed_addr constant [20 x i8] c"Object descriptions\00", align 1

; Function Attrs: nounwind uwtable
define dso_local zeroext i1 @objectDescription(ptr noundef %0, i1 noundef zeroext %1) #0 {
  %3 = alloca i1, align 1
  %4 = alloca ptr, align 8
  %5 = alloca i8, align 1
  %6 = alloca %struct.PQExpBufferData, align 8
  %7 = alloca ptr, align 8
  %8 = alloca %struct.printQueryOpt, align 8
  %9 = alloca i32, align 4
  store ptr %0, ptr %4, align 8
  %10 = zext i1 %1 to i8
  store i8 %10, ptr %5, align 1
  call void @llvm.lifetime.start.p0(i64 24, ptr %6) #8
  call void @llvm.lifetime.start.p0(i64 8, ptr %7) #8
  call void @llvm.lifetime.start.p0(i64 168, ptr %8) #8
  call void @llvm.memcpy.p0.p0.i64(ptr align 8 %8, ptr align 8 getelementptr inbounds nuw (%struct._psqlSettings, ptr @pset, i32 0, i32 6), i64 168, i1 false)
  call void @initPQExpBuffer(ptr noundef %6)
  call void (ptr, ptr, ...) @appendPQExpBuffer(ptr noundef %6, ptr noundef @.str.177, ptr noundef @.str.1, ptr noundef @.str.2, ptr noundef @.str.178, ptr noundef @.str.6)
  call void (ptr, ptr, ...) @appendPQExpBuffer(ptr noundef %6, ptr noundef @.str.179, ptr noundef @.str.180)
  %11 = load i8, ptr %5, align 1, !range !4, !noundef !5
  %12 = trunc i8 %11 to i1
  br i1 %12, label %17, label %13

13:                                               ; preds = %2
  %14 = load ptr, ptr %4, align 8
  %15 = icmp ne ptr %14, null
  br i1 %15, label %17, label %16

16:                                               ; preds = %13
  call void @appendPQExpBufferStr(ptr noundef %6, ptr noundef @.str.123)
  br label %17

17:                                               ; preds = %16, %13, %2
  %18 = load ptr, ptr %4, align 8
  %19 = load i8, ptr %5, align 1, !range !4, !noundef !5
  %20 = trunc i8 %19 to i1
  br i1 %20, label %25, label %21

21:                                               ; preds = %17
  %22 = load ptr, ptr %4, align 8
  %23 = icmp ne ptr %22, null
  %24 = xor i1 %23, true
  br label %25

25:                                               ; preds = %21, %17
  %26 = phi i1 [ false, %17 ], [ %24, %21 ]
  %27 = call zeroext i1 @validateSQLNamePattern(ptr noundef %6, ptr noundef %18, i1 noundef zeroext %26, i1 noundef zeroext false, ptr noundef @.str.9, ptr noundef @.str.181, ptr noundef null, ptr noundef @.str.166, ptr noundef null, i32 noundef 3)
  br i1 %27, label %29, label %28

28:                                               ; preds = %25
  br label %116

29:                                               ; preds = %25
  call void (ptr, ptr, ...) @appendPQExpBuffer(ptr noundef %6, ptr noundef @.str.182, ptr noundef @.str.183)
  %30 = load i8, ptr %5, align 1, !range !4, !noundef !5
  %31 = trunc i8 %30 to i1
  br i1 %31, label %36, label %32

32:                                               ; preds = %29
  %33 = load ptr, ptr %4, align 8
  %34 = icmp ne ptr %33, null
  br i1 %34, label %36, label %35

35:                                               ; preds = %32
  call void @appendPQExpBufferStr(ptr noundef %6, ptr noundef @.str.123)
  br label %36

36:                                               ; preds = %35, %32, %29
  %37 = load ptr, ptr %4, align 8
  %38 = load i8, ptr %5, align 1, !range !4, !noundef !5
  %39 = trunc i8 %38 to i1
  br i1 %39, label %44, label %40

40:                                               ; preds = %36
  %41 = load ptr, ptr %4, align 8
  %42 = icmp ne ptr %41, null
  %43 = xor i1 %42, true
  br label %44

44:                                               ; preds = %40, %36
  %45 = phi i1 [ false, %36 ], [ %43, %40 ]
  %46 = call zeroext i1 @validateSQLNamePattern(ptr noundef %6, ptr noundef %37, i1 noundef zeroext %45, i1 noundef zeroext false, ptr noundef @.str.9, ptr noundef @.str.181, ptr noundef null, ptr noundef @.str.110, ptr noundef null, i32 noundef 3)
  br i1 %46, label %48, label %47

47:                                               ; preds = %44
  br label %116

48:                                               ; preds = %44
  call void (ptr, ptr, ...) @appendPQExpBuffer(ptr noundef %6, ptr noundef @.str.184, ptr noundef @.str.185)
  %49 = load i8, ptr %5, align 1, !range !4, !noundef !5
  %50 = trunc i8 %49 to i1
  br i1 %50, label %55, label %51

51:                                               ; preds = %48
  %52 = load ptr, ptr %4, align 8
  %53 = icmp ne ptr %52, null
  br i1 %53, label %55, label %54

54:                                               ; preds = %51
  call void @appendPQExpBufferStr(ptr noundef %6, ptr noundef @.str.8)
  br label %55

55:                                               ; preds = %54, %51, %48
  %56 = load ptr, ptr %4, align 8
  %57 = call zeroext i1 @validateSQLNamePattern(ptr noundef %6, ptr noundef %56, i1 noundef zeroext true, i1 noundef zeroext false, ptr noundef @.str.9, ptr noundef @.str.186, ptr noundef null, ptr noundef @.str.187, ptr noundef null, i32 noundef 3)
  br i1 %57, label %59, label %58

58:                                               ; preds = %55
  br label %116

59:                                               ; preds = %55
  call void (ptr, ptr, ...) @appendPQExpBuffer(ptr noundef %6, ptr noundef @.str.188, ptr noundef @.str.189)
  %60 = load i8, ptr %5, align 1, !range !4, !noundef !5
  %61 = trunc i8 %60 to i1
  br i1 %61, label %66, label %62

62:                                               ; preds = %59
  %63 = load ptr, ptr %4, align 8
  %64 = icmp ne ptr %63, null
  br i1 %64, label %66, label %65

65:                                               ; preds = %62
  call void @appendPQExpBufferStr(ptr noundef %6, ptr noundef @.str.8)
  br label %66

66:                                               ; preds = %65, %62, %59
  %67 = load ptr, ptr %4, align 8
  %68 = call zeroext i1 @validateSQLNamePattern(ptr noundef %6, ptr noundef %67, i1 noundef zeroext true, i1 noundef zeroext false, ptr noundef @.str.9, ptr noundef @.str.190, ptr noundef null, ptr noundef @.str.191, ptr noundef null, i32 noundef 3)
  br i1 %68, label %70, label %69

69:                                               ; preds = %66
  br label %116

70:                                               ; preds = %66
  call void (ptr, ptr, ...) @appendPQExpBuffer(ptr noundef %6, ptr noundef @.str.192, ptr noundef @.str.193)
  %71 = load i8, ptr %5, align 1, !range !4, !noundef !5
  %72 = trunc i8 %71 to i1
  br i1 %72, label %77, label %73

73:                                               ; preds = %70
  %74 = load ptr, ptr %4, align 8
  %75 = icmp ne ptr %74, null
  br i1 %75, label %77, label %76

76:                                               ; preds = %73
  call void @appendPQExpBufferStr(ptr noundef %6, ptr noundef @.str.8)
  br label %77

77:                                               ; preds = %76, %73, %70
  %78 = load ptr, ptr %4, align 8
  %79 = call zeroext i1 @validateSQLNamePattern(ptr noundef %6, ptr noundef %78, i1 noundef zeroext true, i1 noundef zeroext false, ptr noundef @.str.9, ptr noundef @.str.194, ptr noundef null, ptr noundef @.str.166, ptr noundef null, i32 noundef 3)
  br i1 %79, label %81, label %80

80:                                               ; preds = %77
  br label %116

81:                                               ; preds = %77
  call void (ptr, ptr, ...) @appendPQExpBuffer(ptr noundef %6, ptr noundef @.str.195, ptr noundef @.str.46)
  %82 = load i8, ptr %5, align 1, !range !4, !noundef !5
  %83 = trunc i8 %82 to i1
  br i1 %83, label %88, label %84

84:                                               ; preds = %81
  %85 = load ptr, ptr %4, align 8
  %86 = icmp ne ptr %85, null
  br i1 %86, label %88, label %87

87:                                               ; preds = %84
  call void @appendPQExpBufferStr(ptr noundef %6, ptr noundef @.str.123)
  br label %88

88:                                               ; preds = %87, %84, %81
  %89 = load ptr, ptr %4, align 8
  %90 = load i8, ptr %5, align 1, !range !4, !noundef !5
  %91 = trunc i8 %90 to i1
  br i1 %91, label %96, label %92

92:                                               ; preds = %88
  %93 = load ptr, ptr %4, align 8
  %94 = icmp ne ptr %93, null
  %95 = xor i1 %94, true
  br label %96

96:                                               ; preds = %92, %88
  %97 = phi i1 [ false, %88 ], [ %95, %92 ]
  %98 = call zeroext i1 @validateSQLNamePattern(ptr noundef %6, ptr noundef %89, i1 noundef zeroext %97, i1 noundef zeroext false, ptr noundef @.str.9, ptr noundef @.str.196, ptr noundef null, ptr noundef @.str.166, ptr noundef null, i32 noundef 3)
  br i1 %98, label %100, label %99

99:                                               ; preds = %96
  br label %116

100:                                              ; preds = %96
  call void @appendPQExpBufferStr(ptr noundef %6, ptr noundef @.str.197)
  call void @appendPQExpBufferStr(ptr noundef %6, ptr noundef @.str.175)
  %101 = getelementptr inbounds nuw %struct.PQExpBufferData, ptr %6, i32 0, i32 0
  %102 = load ptr, ptr %101, align 8
  %103 = call ptr @PSQLexec(ptr noundef %102)
  store ptr %103, ptr %7, align 8
  call void @termPQExpBuffer(ptr noundef %6)
  %104 = load ptr, ptr %7, align 8
  %105 = icmp ne ptr %104, null
  br i1 %105, label %107, label %106

106:                                              ; preds = %100
  store i1 false, ptr %3, align 1
  store i32 1, ptr %9, align 4
  br label %117

107:                                              ; preds = %100
  %108 = getelementptr inbounds nuw %struct.printQueryOpt, ptr %8, i32 0, i32 2
  store ptr @.str.198, ptr %108, align 8
  %109 = getelementptr inbounds nuw %struct.printQueryOpt, ptr %8, i32 0, i32 4
  store i8 1, ptr %109, align 8
  %110 = getelementptr inbounds nuw %struct.printQueryOpt, ptr %8, i32 0, i32 5
  store ptr @objectDescription.translate_columns, ptr %110, align 8
  %111 = getelementptr inbounds nuw %struct.printQueryOpt, ptr %8, i32 0, i32 6
  store i32 4, ptr %111, align 8
  %112 = load ptr, ptr %7, align 8
  %113 = load ptr, ptr getelementptr inbounds nuw (%struct._psqlSettings, ptr @pset, i32 0, i32 2), align 8
  %114 = load ptr, ptr getelementptr inbounds nuw (%struct._psqlSettings, ptr @pset, i32 0, i32 28), align 8
  call void @printQuery(ptr noundef %112, ptr noundef %8, ptr noundef %113, i1 noundef zeroext false, ptr noundef %114)
  %115 = load ptr, ptr %7, align 8
  call void @PQclear(ptr noundef %115)
  store i1 true, ptr %3, align 1
  store i32 1, ptr %9, align 4
  br label %117

116:                                              ; preds = %99, %80, %69, %58, %47, %28
  call void @termPQExpBuffer(ptr noundef %6)
  store i1 false, ptr %3, align 1
  store i32 1, ptr %9, align 4
  br label %117

117:                                              ; preds = %116, %107, %106
  call void @llvm.lifetime.end.p0(i64 168, ptr %8) #8
  call void @llvm.lifetime.end.p0(i64 8, ptr %7) #8
  call void @llvm.lifetime.end.p0(i64 24, ptr %6) #8
  %118 = load i1, ptr %3, align 1
  ret i1 %118
}