; Function Attrs: nounwind uwtable
define dso_local noundef zeroext i1 @objectDescription(ptr noundef %0, i1 noundef zeroext %1) local_unnamed_addr #0 {
  %3 = alloca %struct.PQExpBufferData, align 8
  %4 = alloca %struct.printQueryOpt, align 8
  call void @llvm.lifetime.start.p0(i64 24, ptr nonnull %3) #8
  call void @llvm.lifetime.start.p0(i64 168, ptr nonnull %4) #8
  call void @llvm.memcpy.p0.p0.i64(ptr noundef nonnull align 8 dereferenceable(168) %4, ptr noundef nonnull align 8 dereferenceable(168) getelementptr inbounds nuw (i8, ptr @pset, i64 48), i64 168, i1 false)
  call void @initPQExpBuffer(ptr noundef nonnull %3) #8
  call void (ptr, ptr, ...) @appendPQExpBuffer(ptr noundef nonnull %3, ptr noundef nonnull @.str.177, ptr noundef nonnull @.str.1, ptr noundef nonnull @.str.2, ptr noundef nonnull @.str.178, ptr noundef nonnull @.str.6) #8
  call void (ptr, ptr, ...) @appendPQExpBuffer(ptr noundef nonnull %3, ptr noundef nonnull @.str.179, ptr noundef nonnull @.str.180) #8
  %5 = icmp ne ptr %0, null
  %or.cond = or i1 %1, %5
  br i1 %or.cond, label %7, label %6

6:                                                ; preds = %2
  call void @appendPQExpBufferStr(ptr noundef nonnull %3, ptr noundef nonnull @.str.123) #8
  br label %7

7:                                                ; preds = %6, %2
  %8 = xor i1 %or.cond, true
  %9 = call fastcc zeroext i1 @validateSQLNamePattern(ptr noundef %3, ptr noundef %0, i1 noundef zeroext %8, i1 noundef zeroext false, ptr noundef nonnull @.str.9, ptr noundef nonnull @.str.181, ptr noundef null, ptr noundef nonnull @.str.166, ptr noundef null, i32 noundef 3)
  br i1 %9, label %10, label %40

10:                                               ; preds = %7
  call void (ptr, ptr, ...) @appendPQExpBuffer(ptr noundef nonnull %3, ptr noundef nonnull @.str.182, ptr noundef nonnull @.str.183) #8
  br i1 %or.cond, label %12, label %11

11:                                               ; preds = %10
  call void @appendPQExpBufferStr(ptr noundef nonnull %3, ptr noundef nonnull @.str.123) #8
  br label %12

12:                                               ; preds = %11, %10
  %13 = call fastcc zeroext i1 @validateSQLNamePattern(ptr noundef %3, ptr noundef %0, i1 noundef zeroext %8, i1 noundef zeroext false, ptr noundef nonnull @.str.9, ptr noundef nonnull @.str.181, ptr noundef null, ptr noundef nonnull @.str.110, ptr noundef null, i32 noundef 3)
  br i1 %13, label %14, label %40

14:                                               ; preds = %12
  call void (ptr, ptr, ...) @appendPQExpBuffer(ptr noundef nonnull %3, ptr noundef nonnull @.str.184, ptr noundef nonnull @.str.185) #8
  br i1 %or.cond, label %16, label %15

15:                                               ; preds = %14
  call void @appendPQExpBufferStr(ptr noundef nonnull %3, ptr noundef nonnull @.str.8) #8
  br label %16

16:                                               ; preds = %15, %14
  %17 = call fastcc zeroext i1 @validateSQLNamePattern(ptr noundef %3, ptr noundef %0, i1 noundef zeroext true, i1 noundef zeroext false, ptr noundef nonnull @.str.9, ptr noundef nonnull @.str.186, ptr noundef null, ptr noundef nonnull @.str.187, ptr noundef null, i32 noundef 3)
  br i1 %17, label %18, label %40

18:                                               ; preds = %16
  call void (ptr, ptr, ...) @appendPQExpBuffer(ptr noundef nonnull %3, ptr noundef nonnull @.str.188, ptr noundef nonnull @.str.189) #8
  br i1 %or.cond, label %20, label %19

19:                                               ; preds = %18
  call void @appendPQExpBufferStr(ptr noundef nonnull %3, ptr noundef nonnull @.str.8) #8
  br label %20

20:                                               ; preds = %19, %18
  %21 = call fastcc zeroext i1 @validateSQLNamePattern(ptr noundef %3, ptr noundef %0, i1 noundef zeroext true, i1 noundef zeroext false, ptr noundef nonnull @.str.9, ptr noundef nonnull @.str.190, ptr noundef null, ptr noundef nonnull @.str.191, ptr noundef null, i32 noundef 3)
  br i1 %21, label %22, label %40

22:                                               ; preds = %20
  call void (ptr, ptr, ...) @appendPQExpBuffer(ptr noundef nonnull %3, ptr noundef nonnull @.str.192, ptr noundef nonnull @.str.193) #8
  br i1 %or.cond, label %24, label %23

23:                                               ; preds = %22
  call void @appendPQExpBufferStr(ptr noundef nonnull %3, ptr noundef nonnull @.str.8) #8
  br label %24

24:                                               ; preds = %23, %22
  %25 = call fastcc zeroext i1 @validateSQLNamePattern(ptr noundef %3, ptr noundef %0, i1 noundef zeroext true, i1 noundef zeroext false, ptr noundef nonnull @.str.9, ptr noundef nonnull @.str.194, ptr noundef null, ptr noundef nonnull @.str.166, ptr noundef null, i32 noundef 3)
  br i1 %25, label %26, label %40

26:                                               ; preds = %24
  call void (ptr, ptr, ...) @appendPQExpBuffer(ptr noundef nonnull %3, ptr noundef nonnull @.str.195, ptr noundef nonnull @.str.46) #8
  br i1 %or.cond, label %28, label %27

27:                                               ; preds = %26
  call void @appendPQExpBufferStr(ptr noundef nonnull %3, ptr noundef nonnull @.str.123) #8
  br label %28

28:                                               ; preds = %27, %26
  %29 = call fastcc zeroext i1 @validateSQLNamePattern(ptr noundef %3, ptr noundef %0, i1 noundef zeroext %8, i1 noundef zeroext false, ptr noundef nonnull @.str.9, ptr noundef nonnull @.str.196, ptr noundef null, ptr noundef nonnull @.str.166, ptr noundef null, i32 noundef 3)
  br i1 %29, label %30, label %40

30:                                               ; preds = %28
  call void @appendPQExpBufferStr(ptr noundef nonnull %3, ptr noundef nonnull @.str.197) #8
  call void @appendPQExpBufferStr(ptr noundef nonnull %3, ptr noundef nonnull @.str.175) #8
  %31 = load ptr, ptr %3, align 8
  %32 = call ptr @PSQLexec(ptr noundef %31) #8
  call void @termPQExpBuffer(ptr noundef nonnull %3) #8
  %.not = icmp eq ptr %32, null
  br i1 %.not, label %41, label %33

33:                                               ; preds = %30
  %34 = getelementptr inbounds nuw i8, ptr %4, i64 128
  store ptr @.str.198, ptr %34, align 8
  %35 = getelementptr inbounds nuw i8, ptr %4, i64 144
  store i8 1, ptr %35, align 8
  %36 = getelementptr inbounds nuw i8, ptr %4, i64 152
  store ptr @objectDescription.translate_columns, ptr %36, align 8
  %37 = getelementptr inbounds nuw i8, ptr %4, i64 160
  store i32 4, ptr %37, align 8
  %38 = load ptr, ptr getelementptr inbounds nuw (i8, ptr @pset, i64 16), align 8
  %39 = load ptr, ptr getelementptr inbounds nuw (i8, ptr @pset, i64 376), align 8
  call void @printQuery(ptr noundef nonnull %32, ptr noundef nonnull %4, ptr noundef %38, i1 noundef zeroext false, ptr noundef %39) #8
  call void @PQclear(ptr noundef nonnull %32) #8
  br label %41

40:                                               ; preds = %28, %24, %20, %16, %12, %7
  call void @termPQExpBuffer(ptr noundef nonnull %3) #8
  br label %41

41:                                               ; preds = %30, %40, %33
  %.0 = phi i1 [ true, %33 ], [ false, %40 ], [ false, %30 ]
  call void @llvm.lifetime.end.p0(i64 168, ptr nonnull %4) #8
  call void @llvm.lifetime.end.p0(i64 24, ptr nonnull %3) #8
  ret i1 %.0
}